; Function Attrs: mustprogress uwtable
define void @_ZN8proxygen19HTTPSessionAcceptorC2ERKNS_21AcceptorConfigurationE(ptr noundef nonnull align 8 dereferenceable(1928) %this, ptr noundef nonnull align 8 dereferenceable(761) %accConfig) unnamed_addr #4 align 2 personality ptr @__gxx_personality_v0 {
entry:
  %agg.tmp = alloca %"class.std::shared_ptr.116", align 8
  call void @llvm.memset.p0.i64(ptr noundef nonnull align 8 dereferenceable(16) %agg.tmp, i8 0, i64 16, i1 false)
  invoke void @_ZN8proxygen19HTTPSessionAcceptorC2ERKNS_21AcceptorConfigurationESt10shared_ptrINS_16HTTPCodecFactoryEE(ptr noundef nonnull align 8 dereferenceable(1928) %this, ptr noundef nonnull align 8 dereferenceable(761) %accConfig, ptr noundef nonnull %agg.tmp)
          to label %_ZNSt10shared_ptrIN8proxygen16HTTPCodecFactoryEED2Ev.exit unwind label %lpad

_ZNSt10shared_ptrIN8proxygen16HTTPCodecFactoryEED2Ev.exit: ; preds = %entry
  ret void

lpad:                                             ; preds = %entry
  %0 = landingpad { ptr, i32 }
          cleanup
  call void @_ZNSt10shared_ptrIN8proxygen16HTTPCodecFactoryEED2Ev(ptr noundef nonnull align 8 dereferenceable(16) %agg.tmp) #24
  resume { ptr, i32 } %0
}